; Function Attrs: mustprogress uwtable
define hidden noundef zeroext i1 @_ZNK19OpenColorIO_v2_4dev9CDLOpData6isNoOpEv(ptr noundef nonnull align 8 dereferenceable(256) %this) unnamed_addr #3 align 2 {
entry:
  %vtable = load ptr, ptr %this, align 8
  %vfn = getelementptr inbounds i8, ptr %vtable, i64 40
  %0 = load ptr, ptr %vfn, align 8
  %call = tail call noundef zeroext i1 %0(ptr noundef nonnull align 8 dereferenceable(256) %this)
  br i1 %call, label %land.rhs, label %land.end

land.rhs:                                         ; preds = %entry
  %m_style.i.i = getelementptr inbounds i8, ptr %this, i64 168
  %1 = load i32, ptr %m_style.i.i, align 8
  %2 = icmp ult i32 %1, 4
  br i1 %2, label %switch.lookup, label %land.end

switch.lookup:                                    ; preds = %land.rhs
  %switch.cast = trunc i32 %1 to i4
  %switch.downshift = lshr i4 -4, %switch.cast
  %3 = and i4 %switch.downshift, 1
  %switch.masked = icmp ne i4 %3, 0
  br label %land.end

land.end:                                         ; preds = %land.rhs, %switch.lookup, %entry
  %4 = phi i1 [ false, %entry ], [ %switch.masked, %switch.lookup ], [ true, %land.rhs ]
  ret i1 %4
}